target datalayout = "e-m:e-p270:32:32-p271:32:32-p272:64:64-i64:64-i128:128-f80:128-n8:16:32:64-S128"
target triple = "x86_64-pc-linux-gnu"

; Function Attrs: alwaysinline nounwind willreturn memory(none) uwtable
define internal signext i16 @av_clip_int16_c(i32 noundef %0) #8 {
  %2 = alloca i16, align 2
  %3 = alloca i32, align 4
  store i32 %0, ptr %3, align 4, !tbaa !11
  %4 = load i32, ptr %3, align 4, !tbaa !11
  %5 = add i32 %4, 32768
  %6 = and i32 %5, -65536
  %7 = icmp ne i32 %6, 0
  br i1 %7, label %8, label %13

8:                                                ; preds = %1
  %9 = load i32, ptr %3, align 4, !tbaa !11
  %10 = ashr i32 %9, 31
  %11 = xor i32 %10, 32767
  %12 = trunc i32 %11 to i16
  store i16 %12, ptr %2, align 2
  br label %16

13:                                               ; preds = %1
  %14 = load i32, ptr %3, align 4, !tbaa !11
  %15 = trunc i32 %14 to i16
  store i16 %15, ptr %2, align 2
  br label %16

16:                                               ; preds = %13, %8
  %17 = load i16, ptr %2, align 2
  ret i16 %17
}

; Function Attrs: nounwind uwtable
define internal void @copy_clip_s16(ptr noundef %0, ptr noundef %1, ptr noundef %2, i32 noundef %3, i32 noundef %4) #0 {
  %6 = alloca ptr, align 8
  %7 = alloca ptr, align 8
  %8 = alloca ptr, align 8
  %9 = alloca i32, align 4
  %10 = alloca i32, align 4
  %11 = alloca i32, align 4
  %12 = alloca i32, align 4
  store ptr %0, ptr %6, align 8, !tbaa !84
  store ptr %1, ptr %7, align 8, !tbaa !84
  store ptr %2, ptr %8, align 8, !tbaa !86
  store i32 %3, ptr %9, align 4, !tbaa !11
  store i32 %4, ptr %10, align 4, !tbaa !11
  call void @llvm.lifetime.start.p0(i64 4, ptr %11) #9
  call void @llvm.lifetime.start.p0(i64 4, ptr %12) #9
  %13 = load ptr, ptr %8, align 8, !tbaa !86
  %14 = load i32, ptr %9, align 4, !tbaa !11
  %15 = sext i32 %14 to i64
  %16 = getelementptr inbounds i32, ptr %13, i64 %15
  %17 = load i32, ptr %16, align 4, !tbaa !11
  store i32 %17, ptr %12, align 4, !tbaa !11
  store i32 0, ptr %11, align 4, !tbaa !11
  br label %18

18:                                               ; preds = %38, %5
  %19 = load i32, ptr %11, align 4, !tbaa !11
  %20 = load i32, ptr %10, align 4, !tbaa !11
  %21 = icmp slt i32 %19, %20
  br i1 %21, label %22, label %41

22:                                               ; preds = %18
  %23 = load i32, ptr %12, align 4, !tbaa !11
  %24 = load ptr, ptr %7, align 8, !tbaa !84
  %25 = load i32, ptr %11, align 4, !tbaa !11
  %26 = sext i32 %25 to i64
  %27 = getelementptr inbounds i16, ptr %24, i64 %26
  %28 = load i16, ptr %27, align 2, !tbaa !87
  %29 = sext i16 %28 to i32
  %30 = mul nsw i32 %23, %29
  %31 = add nsw i32 %30, 16384
  %32 = ashr i32 %31, 15
  %33 = call signext i16 @av_clip_int16_c(i32 noundef %32) #12
  %34 = load ptr, ptr %6, align 8, !tbaa !84
  %35 = load i32, ptr %11, align 4, !tbaa !11
  %36 = sext i32 %35 to i64
  %37 = getelementptr inbounds i16, ptr %34, i64 %36
  store i16 %33, ptr %37, align 2, !tbaa !87
  br label %38

38:                                               ; preds = %22
  %39 = load i32, ptr %11, align 4, !tbaa !11
  %40 = add nsw i32 %39, 1
  store i32 %40, ptr %11, align 4, !tbaa !11
  br label %18, !llvm.loop !91

41:                                               ; preds = %18
  call void @llvm.lifetime.end.p0(i64 4, ptr %12) #9
  call void @llvm.lifetime.end.p0(i64 4, ptr %11) #9
  ret void
}